target datalayout = "e-m:e-p270:32:32-p271:32:32-p272:64:64-i64:64-i128:128-f80:128-n8:16:32:64-S128"
target triple = "x86_64-pc-linux-gnu"

%"class.std::unique_ptr" = type { %"struct.std::__uniq_ptr_data" }
%"struct.std::__uniq_ptr_data" = type { %"class.std::__uniq_ptr_impl" }
%"class.std::__uniq_ptr_impl" = type { %"class.std::tuple" }
%"class.std::tuple" = type { %"struct.std::_Tuple_impl" }
%"struct.std::_Tuple_impl" = type { %"struct.std::_Head_base.1" }
%"struct.std::_Head_base.1" = type { ptr }
%"class.llvm::SmallVectorBase" = type { ptr, i32, i32 }
%"class.llvm::BumpPtrAllocatorImpl" = type { ptr, ptr, %"class.llvm::SmallVector", %"class.llvm::SmallVector.13", i64, i64 }
%"class.llvm::SmallVector" = type { %"class.llvm::SmallVectorImpl", %"struct.llvm::SmallVectorStorage" }
%"class.llvm::SmallVectorImpl" = type { %"class.llvm::SmallVectorTemplateBase" }
%"class.llvm::SmallVectorTemplateBase" = type { %"class.llvm::SmallVectorTemplateCommon" }
%"class.llvm::SmallVectorTemplateCommon" = type { %"class.llvm::SmallVectorBase" }
%"struct.llvm::SmallVectorStorage" = type { [32 x i8] }
%"class.llvm::SmallVector.13" = type { %"class.llvm::SmallVectorImpl.14" }
%"class.llvm::SmallVectorImpl.14" = type { %"class.llvm::SmallVectorTemplateBase.15" }
%"class.llvm::SmallVectorTemplateBase.15" = type { %"class.llvm::SmallVectorTemplateCommon.16" }
%"class.llvm::SmallVectorTemplateCommon.16" = type { %"class.llvm::SmallVectorBase" }
%"class.clang::FileID" = type { i32 }
%"class.clang::SourceManager" = type { %"class.llvm::RefCountedBase.109", ptr, ptr, %"class.llvm::BumpPtrAllocatorImpl", %"class.llvm::DenseMap.110", i8, i8, i8, %"class.std::unique_ptr.113", %"class.std::vector.121", %"class.llvm::SmallVector.126", %"class.llvm::PagedVector", %"class.llvm::SmallVector.136", i32, i32, %"class.llvm::BitVector", %"class.llvm::BitVector", ptr, %"class.clang::FileID", %"class.std::unique_ptr.146", %"class.clang::FileID", ptr, i32, i32, %"class.clang::FileID", %"class.clang::FileID", i32, i32, %"class.llvm::DenseMap.154", %"class.llvm::DenseMap.157", %"class.clang::InBeforeInTUCacheEntry", %"class.std::unique_ptr", %"class.std::unique_ptr.160", %"class.std::unique_ptr.168", %"class.llvm::DenseMap.176", %"class.llvm::SmallVector.179" }
%"class.llvm::RefCountedBase.109" = type { i32 }
%"class.llvm::DenseMap.110" = type <{ ptr, i32, i32, i32, [4 x i8] }>
%"class.std::unique_ptr.113" = type { %"struct.std::__uniq_ptr_data.114" }
%"struct.std::__uniq_ptr_data.114" = type { %"class.std::__uniq_ptr_impl.115" }
%"class.std::__uniq_ptr_impl.115" = type { %"class.std::tuple.116" }
%"class.std::tuple.116" = type { %"struct.std::_Tuple_impl.117" }
%"struct.std::_Tuple_impl.117" = type { %"struct.std::_Head_base.120" }
%"struct.std::_Head_base.120" = type { ptr }
%"class.std::vector.121" = type { %"struct.std::_Vector_base.122" }
%"struct.std::_Vector_base.122" = type { %"struct.std::_Vector_base<clang::SrcMgr::ContentCache *, std::allocator<clang::SrcMgr::ContentCache *>>::_Vector_impl" }
%"struct.std::_Vector_base<clang::SrcMgr::ContentCache *, std::allocator<clang::SrcMgr::ContentCache *>>::_Vector_impl" = type { %"struct.std::_Vector_base<clang::SrcMgr::ContentCache *, std::allocator<clang::SrcMgr::ContentCache *>>::_Vector_impl_data" }
%"struct.std::_Vector_base<clang::SrcMgr::ContentCache *, std::allocator<clang::SrcMgr::ContentCache *>>::_Vector_impl_data" = type { ptr, ptr, ptr }
%"class.llvm::SmallVector.126" = type { %"class.llvm::SmallVectorImpl.127" }
%"class.llvm::SmallVectorImpl.127" = type { %"class.llvm::SmallVectorTemplateBase.128" }
%"class.llvm::SmallVectorTemplateBase.128" = type { %"class.llvm::SmallVectorTemplateCommon.129" }
%"class.llvm::SmallVectorTemplateCommon.129" = type { %"class.llvm::SmallVectorBase" }
%"class.llvm::PagedVector" = type { i64, %"class.llvm::SmallVector.131", %"class.llvm::PointerIntPair" }
%"class.llvm::SmallVector.131" = type { %"class.llvm::SmallVectorImpl.132" }
%"class.llvm::SmallVectorImpl.132" = type { %"class.llvm::SmallVectorTemplateBase.133" }
%"class.llvm::SmallVectorTemplateBase.133" = type { %"class.llvm::SmallVectorTemplateCommon.134" }
%"class.llvm::SmallVectorTemplateCommon.134" = type { %"class.llvm::SmallVectorBase" }
%"class.llvm::PointerIntPair" = type { %"struct.llvm::detail::PunnedPointer" }
%"struct.llvm::detail::PunnedPointer" = type { [8 x i8] }
%"class.llvm::SmallVector.136" = type { %"class.llvm::SmallVectorImpl.137" }
%"class.llvm::SmallVectorImpl.137" = type { %"class.llvm::SmallVectorTemplateBase.138" }
%"class.llvm::SmallVectorTemplateBase.138" = type { %"class.llvm::SmallVectorTemplateCommon.139" }
%"class.llvm::SmallVectorTemplateCommon.139" = type { %"class.llvm::SmallVectorBase" }
%"class.llvm::BitVector" = type <{ %"class.llvm::SmallVector.141", i32, [4 x i8] }>
%"class.llvm::SmallVector.141" = type { %"class.llvm::SmallVectorImpl.142", %"struct.llvm::SmallVectorStorage.145" }
%"class.llvm::SmallVectorImpl.142" = type { %"class.llvm::SmallVectorTemplateBase.143" }
%"class.llvm::SmallVectorTemplateBase.143" = type { %"class.llvm::SmallVectorTemplateCommon.144" }
%"class.llvm::SmallVectorTemplateCommon.144" = type { %"class.llvm::SmallVectorBase" }
%"struct.llvm::SmallVectorStorage.145" = type { [48 x i8] }
%"class.std::unique_ptr.146" = type { %"struct.std::__uniq_ptr_data.147" }
%"struct.std::__uniq_ptr_data.147" = type { %"class.std::__uniq_ptr_impl.148" }
%"class.std::__uniq_ptr_impl.148" = type { %"class.std::tuple.149" }
%"class.std::tuple.149" = type { %"struct.std::_Tuple_impl.150" }
%"struct.std::_Tuple_impl.150" = type { %"struct.std::_Head_base.153" }
%"struct.std::_Head_base.153" = type { ptr }
%"class.llvm::DenseMap.154" = type <{ ptr, i32, i32, i32, [4 x i8] }>
%"class.llvm::DenseMap.157" = type <{ ptr, i32, i32, i32, [4 x i8] }>
%"class.clang::InBeforeInTUCacheEntry" = type { %"class.clang::FileID", %"class.clang::FileID", i8, %"class.clang::FileID", i32, i32 }
%"class.std::unique_ptr.160" = type { %"struct.std::__uniq_ptr_data.161" }
%"struct.std::__uniq_ptr_data.161" = type { %"class.std::__uniq_ptr_impl.162" }
%"class.std::__uniq_ptr_impl.162" = type { %"class.std::tuple.163" }
%"class.std::tuple.163" = type { %"struct.std::_Tuple_impl.164" }
%"struct.std::_Tuple_impl.164" = type { %"struct.std::_Head_base.167" }
%"struct.std::_Head_base.167" = type { ptr }
%"class.std::unique_ptr.168" = type { %"struct.std::__uniq_ptr_data.169" }
%"struct.std::__uniq_ptr_data.169" = type { %"class.std::__uniq_ptr_impl.170" }
%"class.std::__uniq_ptr_impl.170" = type { %"class.std::tuple.171" }
%"class.std::tuple.171" = type { %"struct.std::_Tuple_impl.172" }
%"struct.std::_Tuple_impl.172" = type { %"struct.std::_Head_base.175" }
%"struct.std::_Head_base.175" = type { ptr }
%"class.llvm::DenseMap.176" = type <{ ptr, i32, i32, i32, [4 x i8] }>
%"class.llvm::SmallVector.179" = type { %"class.llvm::SmallVectorImpl.180", %"struct.llvm::SmallVectorStorage.183" }
%"class.llvm::SmallVectorImpl.180" = type { %"class.llvm::SmallVectorTemplateBase.181" }
%"class.llvm::SmallVectorTemplateBase.181" = type { %"class.llvm::SmallVectorTemplateCommon.182" }
%"class.llvm::SmallVectorTemplateCommon.182" = type { %"class.llvm::SmallVectorBase" }
%"struct.llvm::SmallVectorStorage.183" = type { [96 x i8] }

; Function Attrs: mustprogress nounwind uwtable
define linkonce_odr hidden void @_ZN5clang6FileIDC2Ev(ptr noundef nonnull align 4 dereferenceable(4) %0) unnamed_addr #1 comdat align 2 {
  %2 = alloca ptr, align 8
  store ptr %0, ptr %2, align 8
  %3 = load ptr, ptr %2, align 8
  %4 = getelementptr inbounds nuw %"class.clang::FileID", ptr %3, i32 0, i32 0
  store i32 0, ptr %4, align 4
  ret void
}

; Function Attrs: mustprogress nounwind uwtable
define dso_local i32 @_ZNK5clang13SourceManager15getFileIDLoadedEj(ptr noundef nonnull align 8 dereferenceable(696) %0, i32 noundef %1) #1 align 2 {
  %3 = alloca %"class.clang::FileID", align 4
  %4 = alloca ptr, align 8
  %5 = alloca i32, align 4
  store ptr %0, ptr %4, align 8
  store i32 %1, ptr %5, align 4
  %6 = load ptr, ptr %4, align 8
  %7 = load i32, ptr %5, align 4
  %8 = getelementptr inbounds nuw %"class.clang::SourceManager", ptr %6, i32 0, i32 14
  %9 = load i32, ptr %8, align 4
  %10 = icmp ult i32 %7, %9
  br i1 %10, label %11, label %12

11:                                               ; preds = %2
  call void @llvm.memset.p0.i64(ptr align 4 %3, i8 0, i64 4, i1 false)
  call void @_ZN5clang6FileIDC2Ev(ptr noundef nonnull align 4 dereferenceable(4) %3) #15
  br label %22

12:                                               ; preds = %2
  %13 = getelementptr inbounds nuw %"class.clang::SourceManager", ptr %6, i32 0, i32 17
  %14 = load ptr, ptr %13, align 8
  %15 = load i32, ptr %5, align 4
  %16 = load ptr, ptr %14, align 8
  %17 = getelementptr inbounds ptr, ptr %16, i64 3
  %18 = load ptr, ptr %17, align 8
  %19 = call noundef i32 %18(ptr noundef nonnull align 8 dereferenceable(8) %14, i32 noundef %15)
  %20 = call i32 @_ZN5clang6FileID3getEi(i32 noundef %19)
  %21 = getelementptr inbounds nuw %"class.clang::FileID", ptr %3, i32 0, i32 0
  store i32 %20, ptr %21, align 4
  br label %22

22:                                               ; preds = %12, %11
  %23 = getelementptr inbounds nuw %"class.clang::FileID", ptr %3, i32 0, i32 0
  %24 = load i32, ptr %23, align 4
  ret i32 %24
}

; Function Attrs: mustprogress nounwind uwtable
define linkonce_odr hidden i32 @_ZN5clang6FileID3getEi(i32 noundef %0) #1 comdat align 2 {
  %2 = alloca %"class.clang::FileID", align 4
  %3 = alloca i32, align 4
  store i32 %0, ptr %3, align 4
  call void @_ZN5clang6FileIDC2Ev(ptr noundef nonnull align 4 dereferenceable(4) %2) #15
  %4 = load i32, ptr %3, align 4
  %5 = getelementptr inbounds nuw %"class.clang::FileID", ptr %2, i32 0, i32 0
  store i32 %4, ptr %5, align 4
  %6 = getelementptr inbounds nuw %"class.clang::FileID", ptr %2, i32 0, i32 0
  %7 = load i32, ptr %6, align 4
  ret i32 %7
}

; Function Attrs: mustprogress nounwind uwtable
define dso_local i32 @_ZNK5clang13SourceManager13getFileIDSlowEj(ptr noundef nonnull align 8 dereferenceable(696) %0, i32 noundef %1) #1 align 2 {
  %3 = alloca %"class.clang::FileID", align 4
  %4 = alloca ptr, align 8
  %5 = alloca i32, align 4
  store ptr %0, ptr %4, align 8
  store i32 %1, ptr %5, align 4
  %6 = load ptr, ptr %4, align 8
  %7 = load i32, ptr %5, align 4
  %8 = icmp ne i32 %7, 0
  br i1 %8, label %12, label %9

9:                                                ; preds = %2
  %10 = call i32 @_ZN5clang6FileID3getEi(i32 noundef 0)
  %11 = getelementptr inbounds nuw %"class.clang::FileID", ptr %3, i32 0, i32 0
  store i32 %10, ptr %11, align 4
  br label %25

12:                                               ; preds = %2
  %13 = load i32, ptr %5, align 4
  %14 = getelementptr inbounds nuw %"class.clang::SourceManager", ptr %6, i32 0, i32 13
  %15 = load i32, ptr %14, align 8
  %16 = icmp ult i32 %13, %15
  br i1 %16, label %17, label %21

17:                                               ; preds = %12
  %18 = load i32, ptr %5, align 4
  %19 = call i32 @_ZNK5clang13SourceManager14getFileIDLocalEj(ptr noundef nonnull align 8 dereferenceable(696) %6, i32 noundef %18)
  %20 = getelementptr inbounds nuw %"class.clang::FileID", ptr %3, i32 0, i32 0
  store i32 %19, ptr %20, align 4
  br label %25

21:                                               ; preds = %12
  %22 = load i32, ptr %5, align 4
  %23 = call i32 @_ZNK5clang13SourceManager15getFileIDLoadedEj(ptr noundef nonnull align 8 dereferenceable(696) %6, i32 noundef %22)
  %24 = getelementptr inbounds nuw %"class.clang::FileID", ptr %3, i32 0, i32 0
  store i32 %23, ptr %24, align 4
  br label %25

25:                                               ; preds = %21, %17, %9
  %26 = getelementptr inbounds nuw %"class.clang::FileID", ptr %3, i32 0, i32 0
  %27 = load i32, ptr %26, align 4
  ret i32 %27
}