; Function Attrs: mustprogress nounwind uwtable
define dso_local i32 @_ZNK5clang13SourceManager13getFileIDSlowEj(ptr noundef nonnull align 8 dereferenceable(696) %0, i32 noundef %1) local_unnamed_addr #1 align 2 {
  %.not = icmp eq i32 %1, 0
  br i1 %.not, label %_ZNK5clang13SourceManager15getFileIDLoadedEj.exit, label %3

3:                                                ; preds = %2
  %4 = getelementptr inbounds nuw i8, ptr %0, i64 248
  %5 = load i32, ptr %4, align 8
  %6 = icmp ult i32 %1, %5
  br i1 %6, label %7, label %9

7:                                                ; preds = %3
  %8 = tail call i32 @_ZNK5clang13SourceManager14getFileIDLocalEj(ptr noundef nonnull align 8 dereferenceable(696) %0, i32 noundef %1)
  br label %_ZNK5clang13SourceManager15getFileIDLoadedEj.exit

9:                                                ; preds = %3
  %10 = getelementptr inbounds nuw i8, ptr %0, i64 252
  %11 = load i32, ptr %10, align 4
  %12 = icmp ult i32 %1, %11
  br i1 %12, label %_ZNK5clang13SourceManager15getFileIDLoadedEj.exit, label %13

13:                                               ; preds = %9
  %14 = getelementptr inbounds nuw i8, ptr %0, i64 400
  %15 = load ptr, ptr %14, align 8
  %16 = load ptr, ptr %15, align 8
  %17 = getelementptr inbounds nuw i8, ptr %16, i64 24
  %18 = load ptr, ptr %17, align 8
  %19 = tail call noundef i32 %18(ptr noundef nonnull align 8 dereferenceable(8) %15, i32 noundef %1) #26
  br label %_ZNK5clang13SourceManager15getFileIDLoadedEj.exit

_ZNK5clang13SourceManager15getFileIDLoadedEj.exit: ; preds = %13, %9, %2, %7
  %.sroa.0.0 = phi i32 [ %8, %7 ], [ 0, %2 ], [ %19, %13 ], [ 0, %9 ]
  ret i32 %.sroa.0.0
}